(ioptparse
Values
p0
(dp1
S'selected_nodes'
p2
(lp3
sS'autoflatten'
p4
I01
sS'filetype'
p5
S'kicad_module'
p6
sS'ids'
p7
(lp8
S'path891-1'
p9
aS'path913'
p10
asS'crop'
p11
I00
sS'debug'
p12
I01
sS'openkicad'
p13
I00
sS'openfactory'
p14
I00
sS'threshold'
p15
F5.0
sS'path'
p16
S'C:\\Users\\shane\\Documents\\GitHub\\coLAS\\PCBs\\svg2shenzen'
p17
sS'dpi'
p18
F600.0
sb.